target datalayout = "e-m:e-p270:32:32-p271:32:32-p272:64:64-i64:64-i128:128-f80:128-n8:16:32:64-S128"
target triple = "x86_64-pc-linux-gnu"

; Function Attrs: mustprogress nounwind uwtable
define hidden noundef double @_ZN6cvtest11cmpUlpsInt_IiEEdPKT_S3_mimRm(ptr noundef %0, ptr noundef %1, i64 noundef %2, i32 noundef %3, i64 noundef %4, ptr noundef nonnull align 8 dereferenceable(8) %5) #4 {
  %7 = alloca ptr, align 8
  %8 = alloca ptr, align 8
  %9 = alloca i64, align 8
  %10 = alloca i32, align 4
  %11 = alloca i64, align 8
  %12 = alloca ptr, align 8
  %13 = alloca i64, align 8
  %14 = alloca double, align 8
  %15 = alloca double, align 8
  store ptr %0, ptr %7, align 8
  store ptr %1, ptr %8, align 8
  store i64 %2, ptr %9, align 8
  store i32 %3, ptr %10, align 4
  store i64 %4, ptr %11, align 8
  store ptr %5, ptr %12, align 8
  store double 0.000000e+00, ptr %14, align 8
  store i64 0, ptr %13, align 8
  br label %16

16:                                               ; preds = %53, %6
  %17 = load i64, ptr %13, align 8
  %18 = load i64, ptr %9, align 8
  %19 = icmp ult i64 %17, %18
  br i1 %19, label %20, label %56

20:                                               ; preds = %16
  %21 = load ptr, ptr %7, align 8
  %22 = load i64, ptr %13, align 8
  %23 = getelementptr inbounds i32, ptr %21, i64 %22
  %24 = load i32, ptr %23, align 4
  %25 = sitofp i32 %24 to double
  %26 = load ptr, ptr %8, align 8
  %27 = load i64, ptr %13, align 8
  %28 = getelementptr inbounds i32, ptr %26, i64 %27
  %29 = load i32, ptr %28, align 4
  %30 = sitofp i32 %29 to double
  %31 = fsub double %25, %30
  %32 = call double @llvm.fabs.f64(double %31)
  store double %32, ptr %15, align 8
  %33 = load double, ptr %14, align 8
  %34 = load double, ptr %15, align 8
  %35 = fcmp olt double %33, %34
  br i1 %35, label %36, label %52

36:                                               ; preds = %20
  %37 = load double, ptr %15, align 8
  store double %37, ptr %14, align 8
  %38 = load double, ptr %15, align 8
  %39 = load i32, ptr %10, align 4
  %40 = sitofp i32 %39 to double
  %41 = fcmp ogt double %38, %40
  br i1 %41, label %42, label %51

42:                                               ; preds = %36
  %43 = load ptr, ptr %12, align 8
  %44 = load i64, ptr %43, align 8
  %45 = icmp eq i64 %44, 0
  br i1 %45, label %46, label %51

46:                                               ; preds = %42
  %47 = load i64, ptr %13, align 8
  %48 = load i64, ptr %11, align 8
  %49 = add i64 %47, %48
  %50 = load ptr, ptr %12, align 8
  store i64 %49, ptr %50, align 8
  br label %51

51:                                               ; preds = %46, %42, %36
  br label %52

52:                                               ; preds = %51, %20
  br label %53

53:                                               ; preds = %52
  %54 = load i64, ptr %13, align 8
  %55 = add i64 %54, 1
  store i64 %55, ptr %13, align 8
  br label %16, !llvm.loop !402

56:                                               ; preds = %16
  %57 = load double, ptr %14, align 8
  ret double %57
}