; Function Attrs: mustprogress nofree norecurse nosync nounwind memory(argmem: readwrite) uwtable
define hidden noundef double @_ZN6cvtest11cmpUlpsInt_IiEEdPKT_S3_mimRm(ptr nocapture noundef readonly %0, ptr nocapture noundef readonly %1, i64 noundef %2, i32 noundef %3, i64 noundef %4, ptr nocapture noundef nonnull align 8 dereferenceable(8) %5) local_unnamed_addr #16 {
  %.not = icmp eq i64 %2, 0
  br i1 %.not, label %._crit_edge, label %.lr.ph

.lr.ph:                                           ; preds = %6
  %.promoted = load i64, ptr %5, align 8
  %7 = sitofp i32 %3 to double
  br label %8

8:                                                ; preds = %.lr.ph, %24
  %.020 = phi i64 [ 0, %.lr.ph ], [ %26, %24 ]
  %.01619 = phi double [ 0.000000e+00, %.lr.ph ], [ %.1, %24 ]
  %9 = phi i64 [ %.promoted, %.lr.ph ], [ %25, %24 ]
  %10 = getelementptr inbounds i32, ptr %0, i64 %.020
  %11 = load i32, ptr %10, align 4
  %12 = sitofp i32 %11 to double
  %13 = getelementptr inbounds i32, ptr %1, i64 %.020
  %14 = load i32, ptr %13, align 4
  %15 = sitofp i32 %14 to double
  %16 = fsub double %12, %15
  %17 = tail call double @llvm.fabs.f64(double %16)
  %18 = fcmp olt double %.01619, %17
  br i1 %18, label %19, label %24

19:                                               ; preds = %8
  %20 = fcmp ogt double %17, %7
  %21 = icmp eq i64 %9, 0
  %or.cond = select i1 %20, i1 %21, i1 false
  br i1 %or.cond, label %22, label %24

22:                                               ; preds = %19
  %23 = add i64 %.020, %4
  store i64 %23, ptr %5, align 8
  br label %24

24:                                               ; preds = %8, %22, %19
  %25 = phi i64 [ %23, %22 ], [ %9, %19 ], [ %9, %8 ]
  %.1 = phi double [ %17, %22 ], [ %17, %19 ], [ %.01619, %8 ]
  %26 = add nuw i64 %.020, 1
  %exitcond.not = icmp eq i64 %26, %2
  br i1 %exitcond.not, label %._crit_edge, label %8, !llvm.loop !586

._crit_edge:                                      ; preds = %24, %6
  %.016.lcssa = phi double [ 0.000000e+00, %6 ], [ %.1, %24 ]
  ret double %.016.lcssa
}